target datalayout = "e-m:e-p270:32:32-p271:32:32-p272:64:64-i64:64-i128:128-f80:128-n8:16:32:64-S128"
target triple = "x86_64-pc-linux-gnu"

%struct.lua_State = type { i8, i8, i8, i8, i8, i8, i8, ptr, ptr, ptr, ptr, ptr, ptr, ptr, ptr, i32, i32, i16, i16, i32, ptr, ptr, ptr, ptr, ptr }
%struct.global_State = type { %struct.stringtable, ptr, ptr, i8, i8, ptr, ptr, ptr, i64, i64, i32, i32, i32, [40 x ptr], [40 x ptr], ptr, ptr, ptr, [256 x i64], ptr, %struct.UpVal, [11 x ptr], [11 x ptr], [21 x ptr], %struct.lua_TValue, %struct.lua_TValue, i32, ptr, i64, [4 x i64], %struct.lua_Callbacks, %struct.lua_ExecutionCallbacks, [128 x ptr], [128 x ptr], [128 x ptr], %struct.GCStats }
%struct.stringtable = type { ptr, i32, i32 }
%struct.UpVal = type { i8, i8, i8, i8, ptr, %union.anon }
%union.anon = type { %struct.anon }
%struct.anon = type { ptr, ptr, ptr }
%struct.lua_TValue = type { %union.Value, [1 x i32], i32 }
%union.Value = type { ptr }
%struct.lua_Callbacks = type { ptr, ptr, ptr, ptr, ptr, ptr, ptr, ptr, ptr, ptr }
%struct.lua_ExecutionCallbacks = type { ptr, ptr, ptr, ptr, ptr, ptr, ptr }
%struct.GCStats = type { [32 x i32], i32, i32, i64, i64, i64, double, double, double }
%struct.Closure = type { i8, i8, i8, i8, i8, i8, i8, ptr, ptr, %union.anon.0 }
%union.anon.0 = type { %struct.anon.1 }
%struct.anon.1 = type { ptr, ptr, ptr, [1 x %struct.lua_TValue] }

; Function Attrs: mustprogress uwtable
define hidden noundef ptr @_Z16luaF_newCclosureP9lua_StateiP8LuaTable(ptr noundef %0, i32 noundef %1, ptr noundef %2) #0 {
  %4 = alloca ptr, align 8
  %5 = alloca i32, align 4
  %6 = alloca ptr, align 8
  %7 = alloca ptr, align 8
  store ptr %0, ptr %4, align 8, !tbaa !4
  store i32 %1, ptr %5, align 4, !tbaa !77
  store ptr %2, ptr %6, align 8, !tbaa !78
  call void @llvm.lifetime.start.p0(i64 8, ptr %7) #5
  %8 = load ptr, ptr %4, align 8, !tbaa !4
  %9 = load i32, ptr %5, align 4, !tbaa !77
  %10 = sext i32 %9 to i64
  %11 = mul i64 16, %10
  %12 = add i64 48, %11
  %13 = load ptr, ptr %4, align 8, !tbaa !4
  %14 = getelementptr inbounds nuw %struct.lua_State, ptr %13, i32 0, i32 4
  %15 = load i8, ptr %14, align 4, !tbaa !9
  %16 = call noundef ptr @_Z12luaM_newgco_P9lua_Statemh(ptr noundef %8, i64 noundef %12, i8 noundef zeroext %15)
  store ptr %16, ptr %7, align 8, !tbaa !79
  %17 = load ptr, ptr %4, align 8, !tbaa !4
  %18 = getelementptr inbounds nuw %struct.lua_State, ptr %17, i32 0, i32 9
  %19 = load ptr, ptr %18, align 8, !tbaa !23
  %20 = getelementptr inbounds nuw %struct.global_State, ptr %19, i32 0, i32 3
  %21 = load i8, ptr %20, align 8, !tbaa !24
  %22 = zext i8 %21 to i32
  %23 = and i32 %22, 3
  %24 = trunc i32 %23 to i8
  %25 = load ptr, ptr %7, align 8, !tbaa !79
  %26 = getelementptr inbounds nuw %struct.Closure, ptr %25, i32 0, i32 1
  store i8 %24, ptr %26, align 1, !tbaa !81
  %27 = load ptr, ptr %7, align 8, !tbaa !79
  %28 = getelementptr inbounds nuw %struct.Closure, ptr %27, i32 0, i32 0
  store i8 7, ptr %28, align 8, !tbaa !83
  %29 = load ptr, ptr %4, align 8, !tbaa !4
  %30 = getelementptr inbounds nuw %struct.lua_State, ptr %29, i32 0, i32 4
  %31 = load i8, ptr %30, align 4, !tbaa !9
  %32 = load ptr, ptr %7, align 8, !tbaa !79
  %33 = getelementptr inbounds nuw %struct.Closure, ptr %32, i32 0, i32 2
  store i8 %31, ptr %33, align 2, !tbaa !84
  %34 = load ptr, ptr %7, align 8, !tbaa !79
  %35 = getelementptr inbounds nuw %struct.Closure, ptr %34, i32 0, i32 3
  store i8 1, ptr %35, align 1, !tbaa !85
  %36 = load ptr, ptr %6, align 8, !tbaa !78
  %37 = load ptr, ptr %7, align 8, !tbaa !79
  %38 = getelementptr inbounds nuw %struct.Closure, ptr %37, i32 0, i32 8
  store ptr %36, ptr %38, align 8, !tbaa !86
  %39 = load i32, ptr %5, align 4, !tbaa !77
  %40 = trunc i32 %39 to i8
  %41 = load ptr, ptr %7, align 8, !tbaa !79
  %42 = getelementptr inbounds nuw %struct.Closure, ptr %41, i32 0, i32 4
  store i8 %40, ptr %42, align 4, !tbaa !87
  %43 = load ptr, ptr %7, align 8, !tbaa !79
  %44 = getelementptr inbounds nuw %struct.Closure, ptr %43, i32 0, i32 5
  store i8 20, ptr %44, align 1, !tbaa !88
  %45 = load ptr, ptr %7, align 8, !tbaa !79
  %46 = getelementptr inbounds nuw %struct.Closure, ptr %45, i32 0, i32 6
  store i8 0, ptr %46, align 2, !tbaa !89
  %47 = load ptr, ptr %7, align 8, !tbaa !79
  %48 = getelementptr inbounds nuw %struct.Closure, ptr %47, i32 0, i32 9
  %49 = getelementptr inbounds nuw %struct.anon.1, ptr %48, i32 0, i32 0
  store ptr null, ptr %49, align 8, !tbaa !90
  %50 = load ptr, ptr %7, align 8, !tbaa !79
  %51 = getelementptr inbounds nuw %struct.Closure, ptr %50, i32 0, i32 9
  %52 = getelementptr inbounds nuw %struct.anon.1, ptr %51, i32 0, i32 1
  store ptr null, ptr %52, align 8, !tbaa !90
  %53 = load ptr, ptr %7, align 8, !tbaa !79
  %54 = getelementptr inbounds nuw %struct.Closure, ptr %53, i32 0, i32 9
  %55 = getelementptr inbounds nuw %struct.anon.1, ptr %54, i32 0, i32 2
  store ptr null, ptr %55, align 8, !tbaa !90
  %56 = load ptr, ptr %7, align 8, !tbaa !79
  call void @llvm.lifetime.end.p0(i64 8, ptr %7) #5
  ret ptr %56
}