; Function Attrs: mustprogress uwtable
define hidden noundef ptr @_Z16luaF_newCclosureP9lua_StateiP8LuaTable(ptr noundef %0, i32 noundef %1, ptr noundef %2) local_unnamed_addr #0 {
  %4 = sext i32 %1 to i64
  %5 = shl nsw i64 %4, 4
  %6 = add nsw i64 %5, 48
  %7 = getelementptr inbounds nuw i8, ptr %0, i64 4
  %8 = load i8, ptr %7, align 4, !tbaa !4
  %9 = tail call noundef ptr @_Z12luaM_newgco_P9lua_Statemh(ptr noundef %0, i64 noundef %6, i8 noundef zeroext %8)
  %10 = getelementptr inbounds nuw i8, ptr %0, i64 24
  %11 = load ptr, ptr %10, align 8, !tbaa !19
  %12 = getelementptr inbounds nuw i8, ptr %11, i64 32
  %13 = load i8, ptr %12, align 8, !tbaa !20
  %14 = and i8 %13, 3
  %15 = getelementptr inbounds nuw i8, ptr %9, i64 1
  store i8 %14, ptr %15, align 1, !tbaa !43
  store i8 7, ptr %9, align 8, !tbaa !45
  %16 = load i8, ptr %7, align 4, !tbaa !4
  %17 = getelementptr inbounds nuw i8, ptr %9, i64 2
  store i8 %16, ptr %17, align 2, !tbaa !46
  %18 = getelementptr inbounds nuw i8, ptr %9, i64 3
  store i8 1, ptr %18, align 1, !tbaa !47
  %19 = getelementptr inbounds nuw i8, ptr %9, i64 16
  store ptr %2, ptr %19, align 8, !tbaa !48
  %20 = trunc i32 %1 to i8
  %21 = getelementptr inbounds nuw i8, ptr %9, i64 4
  store i8 %20, ptr %21, align 4, !tbaa !49
  %22 = getelementptr inbounds nuw i8, ptr %9, i64 5
  store i8 20, ptr %22, align 1, !tbaa !51
  %23 = getelementptr inbounds nuw i8, ptr %9, i64 6
  store i8 0, ptr %23, align 2, !tbaa !52
  %24 = getelementptr inbounds nuw i8, ptr %9, i64 24
  tail call void @llvm.memset.p0.i64(ptr noundef nonnull align 8 dereferenceable(24) %24, i8 0, i64 24, i1 false)
  ret ptr %9
}